target datalayout = "e-m:e-p270:32:32-p271:32:32-p272:64:64-i64:64-i128:128-f80:128-n8:16:32:64-S128"
target triple = "x86_64-pc-linux-gnu"

%struct.expert_field = type { i32, i32 }
%struct.ieee80211_tagged_field_data = type { i32, ptr, i8, ptr, ptr }

@ei_ieee80211_tag_length = internal global %struct.expert_field zeroinitializer, align 4
@hf_ieee80211_qbss_version = internal global i32 0, align 4
@hf_ieee80211_qbss_scount = internal global i32 0, align 4
@hf_ieee80211_qbss_cu = internal global i32 0, align 4
@hf_ieee80211_qbss_adc = internal global i32 0, align 4
@.str.9953 = private unnamed_addr constant [38 x i8] c"Tag Length %u wrong, must be = 4 or 5\00", align 1
@.str.9954 = private unnamed_addr constant [32 x i8] c" Cisco QBSS Version 1 - non CCA\00", align 1
@.str.9955 = private unnamed_addr constant [21 x i8] c" 802.11e CCA Version\00", align 1
@.str.9956 = private unnamed_addr constant [8 x i8] c" (%d%%)\00", align 1
@.str.9957 = private unnamed_addr constant [11 x i8] c" (%d us/s)\00", align 1

; Function Attrs: null_pointer_is_valid sspstrong uwtable
define internal i32 @ieee80211_tag_qbss_load(ptr noundef %0, ptr noundef %1, ptr noundef %2, ptr noundef %3) #1 {
  %5 = alloca i32, align 4
  %6 = alloca ptr, align 8
  %7 = alloca ptr, align 8
  %8 = alloca ptr, align 8
  %9 = alloca ptr, align 8
  %10 = alloca i32, align 4
  %11 = alloca ptr, align 8
  %12 = alloca i32, align 4
  %13 = alloca i32, align 4
  %14 = alloca ptr, align 8
  store ptr %0, ptr %6, align 8
  store ptr %1, ptr %7, align 8
  store ptr %2, ptr %8, align 8
  store ptr %3, ptr %9, align 8
  call void @llvm.lifetime.start.p0(i64 4, ptr %10) #19
  %15 = load ptr, ptr %6, align 8
  %16 = call i32 @tvb_reported_length(ptr noundef %15)
  store i32 %16, ptr %10, align 4
  call void @llvm.lifetime.start.p0(i64 8, ptr %11) #19
  %17 = load ptr, ptr %9, align 8
  store ptr %17, ptr %11, align 8
  call void @llvm.lifetime.start.p0(i64 4, ptr %12) #19
  store i32 0, ptr %12, align 4
  %18 = load i32, ptr %10, align 4
  %19 = icmp slt i32 %18, 4
  br i1 %19, label %23, label %20

20:                                               ; preds = %4
  %21 = load i32, ptr %10, align 4
  %22 = icmp sgt i32 %21, 5
  br i1 %22, label %23, label %32

23:                                               ; preds = %20, %4
  %24 = load ptr, ptr %7, align 8
  %25 = load ptr, ptr %11, align 8
  %26 = getelementptr inbounds nuw %struct.ieee80211_tagged_field_data, ptr %25, i32 0, i32 4
  %27 = load ptr, ptr %26, align 8
  %28 = load i32, ptr %10, align 4
  %29 = call ptr (ptr, ptr, ptr, ptr, ...) @expert_add_info_format(ptr noundef %24, ptr noundef %27, ptr noundef @ei_ieee80211_tag_length, ptr noundef @.str.9953, i32 noundef %28)
  %30 = load ptr, ptr %6, align 8
  %31 = call i32 @tvb_captured_length(ptr noundef %30)
  store i32 %31, ptr %5, align 4
  store i32 1, ptr %13, align 4
  br label %111

32:                                               ; preds = %20
  %33 = load i32, ptr %10, align 4
  %34 = icmp eq i32 %33, 4
  br i1 %34, label %35, label %62

35:                                               ; preds = %32
  %36 = load ptr, ptr %11, align 8
  %37 = getelementptr inbounds nuw %struct.ieee80211_tagged_field_data, ptr %36, i32 0, i32 3
  %38 = load ptr, ptr %37, align 8
  call void (ptr, ptr, ...) @proto_item_append_text(ptr noundef %38, ptr noundef @.str.9954)
  %39 = load ptr, ptr %8, align 8
  %40 = load i32, ptr @hf_ieee80211_qbss_version, align 4
  %41 = load ptr, ptr %6, align 8
  %42 = load i32, ptr %12, align 4
  %43 = load i32, ptr %10, align 4
  %44 = call ptr @proto_tree_add_uint(ptr noundef %39, i32 noundef %40, ptr noundef %41, i32 noundef %42, i32 noundef %43, i32 noundef 1)
  %45 = load ptr, ptr %8, align 8
  %46 = load i32, ptr @hf_ieee80211_qbss_scount, align 4
  %47 = load ptr, ptr %6, align 8
  %48 = load i32, ptr %12, align 4
  %49 = call ptr @proto_tree_add_item(ptr noundef %45, i32 noundef %46, ptr noundef %47, i32 noundef %48, i32 noundef 2, i32 noundef -2147483648)
  %50 = load ptr, ptr %8, align 8
  %51 = load i32, ptr @hf_ieee80211_qbss_cu, align 4
  %52 = load ptr, ptr %6, align 8
  %53 = load i32, ptr %12, align 4
  %54 = add i32 %53, 2
  %55 = call ptr @proto_tree_add_item(ptr noundef %50, i32 noundef %51, ptr noundef %52, i32 noundef %54, i32 noundef 1, i32 noundef -2147483648)
  %56 = load ptr, ptr %8, align 8
  %57 = load i32, ptr @hf_ieee80211_qbss_adc, align 4
  %58 = load ptr, ptr %6, align 8
  %59 = load i32, ptr %12, align 4
  %60 = add i32 %59, 3
  %61 = call ptr @proto_tree_add_item(ptr noundef %56, i32 noundef %57, ptr noundef %58, i32 noundef %60, i32 noundef 1, i32 noundef -2147483648)
  br label %108

62:                                               ; preds = %32
  %63 = load i32, ptr %10, align 4
  %64 = icmp eq i32 %63, 5
  br i1 %64, label %65, label %107

65:                                               ; preds = %62
  call void @llvm.lifetime.start.p0(i64 8, ptr %14) #19
  %66 = load ptr, ptr %11, align 8
  %67 = getelementptr inbounds nuw %struct.ieee80211_tagged_field_data, ptr %66, i32 0, i32 3
  %68 = load ptr, ptr %67, align 8
  call void (ptr, ptr, ...) @proto_item_append_text(ptr noundef %68, ptr noundef @.str.9955)
  %69 = load ptr, ptr %8, align 8
  %70 = load i32, ptr @hf_ieee80211_qbss_version, align 4
  %71 = load ptr, ptr %6, align 8
  %72 = load i32, ptr %12, align 4
  %73 = load i32, ptr %10, align 4
  %74 = call ptr @proto_tree_add_uint(ptr noundef %69, i32 noundef %70, ptr noundef %71, i32 noundef %72, i32 noundef %73, i32 noundef 2)
  %75 = load ptr, ptr %8, align 8
  %76 = load i32, ptr @hf_ieee80211_qbss_scount, align 4
  %77 = load ptr, ptr %6, align 8
  %78 = load i32, ptr %12, align 4
  %79 = call ptr @proto_tree_add_item(ptr noundef %75, i32 noundef %76, ptr noundef %77, i32 noundef %78, i32 noundef 2, i32 noundef -2147483648)
  %80 = load ptr, ptr %8, align 8
  %81 = load i32, ptr @hf_ieee80211_qbss_cu, align 4
  %82 = load ptr, ptr %6, align 8
  %83 = load i32, ptr %12, align 4
  %84 = add i32 %83, 2
  %85 = call ptr @proto_tree_add_item(ptr noundef %80, i32 noundef %81, ptr noundef %82, i32 noundef %84, i32 noundef 1, i32 noundef -2147483648)
  store ptr %85, ptr %14, align 8
  %86 = load ptr, ptr %14, align 8
  %87 = load ptr, ptr %6, align 8
  %88 = load i32, ptr %12, align 4
  %89 = add i32 %88, 2
  %90 = call zeroext i8 @tvb_get_uint8(ptr noundef %87, i32 noundef %89)
  %91 = zext i8 %90 to i32
  %92 = mul i32 100, %91
  %93 = sdiv i32 %92, 255
  call void (ptr, ptr, ...) @proto_item_append_text(ptr noundef %86, ptr noundef @.str.9956, i32 noundef %93)
  %94 = load ptr, ptr %8, align 8
  %95 = load i32, ptr @hf_ieee80211_qbss_adc, align 4
  %96 = load ptr, ptr %6, align 8
  %97 = load i32, ptr %12, align 4
  %98 = add i32 %97, 3
  %99 = call ptr @proto_tree_add_item(ptr noundef %94, i32 noundef %95, ptr noundef %96, i32 noundef %98, i32 noundef 2, i32 noundef -2147483648)
  store ptr %99, ptr %14, align 8
  %100 = load ptr, ptr %14, align 8
  %101 = load ptr, ptr %6, align 8
  %102 = load i32, ptr %12, align 4
  %103 = add i32 %102, 3
  %104 = call zeroext i16 @tvb_get_letohs(ptr noundef %101, i32 noundef %103)
  %105 = zext i16 %104 to i32
  %106 = mul i32 %105, 32
  call void (ptr, ptr, ...) @proto_item_append_text(ptr noundef %100, ptr noundef @.str.9957, i32 noundef %106)
  call void @llvm.lifetime.end.p0(i64 8, ptr %14) #19
  br label %107

107:                                              ; preds = %65, %62
  br label %108

108:                                              ; preds = %107, %35
  %109 = load ptr, ptr %6, align 8
  %110 = call i32 @tvb_captured_length(ptr noundef %109)
  store i32 %110, ptr %5, align 4
  store i32 1, ptr %13, align 4
  br label %111

111:                                              ; preds = %108, %23
  call void @llvm.lifetime.end.p0(i64 4, ptr %12) #19
  call void @llvm.lifetime.end.p0(i64 8, ptr %11) #19
  call void @llvm.lifetime.end.p0(i64 4, ptr %10) #19
  %112 = load i32, ptr %5, align 4
  ret i32 %112
}