; Function Attrs: null_pointer_is_valid sspstrong uwtable
define internal i32 @ieee80211_tag_qbss_load(ptr noundef %0, ptr noundef %1, ptr noundef %2, ptr noundef readonly captures(none) %3) #2 {
  %5 = tail call i32 @tvb_reported_length(ptr noundef %0)
  %6 = add i32 %5, -6
  %or.cond = icmp ult i32 %6, -2
  br i1 %or.cond, label %7, label %11

7:                                                ; preds = %4
  %8 = getelementptr inbounds nuw i8, ptr %3, i64 32
  %9 = load ptr, ptr %8, align 8
  %10 = tail call ptr (ptr, ptr, ptr, ptr, ...) @expert_add_info_format(ptr noundef %1, ptr noundef %9, ptr noundef nonnull @ei_ieee80211_tag_length, ptr noundef nonnull @.str.9953, i32 noundef %5)
  br label %39

11:                                               ; preds = %4
  %12 = icmp eq i32 %5, 4
  %13 = getelementptr inbounds nuw i8, ptr %3, i64 24
  %14 = load ptr, ptr %13, align 8
  br i1 %12, label %15, label %24

15:                                               ; preds = %11
  tail call void (ptr, ptr, ...) @proto_item_append_text(ptr noundef %14, ptr noundef nonnull @.str.9954)
  %16 = load i32, ptr @hf_ieee80211_qbss_version, align 4
  %17 = tail call ptr @proto_tree_add_uint(ptr noundef %2, i32 noundef %16, ptr noundef %0, i32 noundef 0, i32 noundef 4, i32 noundef 1)
  %18 = load i32, ptr @hf_ieee80211_qbss_scount, align 4
  %19 = tail call ptr @proto_tree_add_item(ptr noundef %2, i32 noundef %18, ptr noundef %0, i32 noundef 0, i32 noundef 2, i32 noundef -2147483648)
  %20 = load i32, ptr @hf_ieee80211_qbss_cu, align 4
  %21 = tail call ptr @proto_tree_add_item(ptr noundef %2, i32 noundef %20, ptr noundef %0, i32 noundef 2, i32 noundef 1, i32 noundef -2147483648)
  %22 = load i32, ptr @hf_ieee80211_qbss_adc, align 4
  %23 = tail call ptr @proto_tree_add_item(ptr noundef %2, i32 noundef %22, ptr noundef %0, i32 noundef 3, i32 noundef 1, i32 noundef -2147483648)
  br label %39

24:                                               ; preds = %11
  tail call void (ptr, ptr, ...) @proto_item_append_text(ptr noundef %14, ptr noundef nonnull @.str.9955)
  %25 = load i32, ptr @hf_ieee80211_qbss_version, align 4
  %26 = tail call ptr @proto_tree_add_uint(ptr noundef %2, i32 noundef %25, ptr noundef %0, i32 noundef 0, i32 noundef 5, i32 noundef 2)
  %27 = load i32, ptr @hf_ieee80211_qbss_scount, align 4
  %28 = tail call ptr @proto_tree_add_item(ptr noundef %2, i32 noundef %27, ptr noundef %0, i32 noundef 0, i32 noundef 2, i32 noundef -2147483648)
  %29 = load i32, ptr @hf_ieee80211_qbss_cu, align 4
  %30 = tail call ptr @proto_tree_add_item(ptr noundef %2, i32 noundef %29, ptr noundef %0, i32 noundef 2, i32 noundef 1, i32 noundef -2147483648)
  %31 = tail call zeroext i8 @tvb_get_uint8(ptr noundef %0, i32 noundef 2)
  %32 = zext i8 %31 to i16
  %.lhs.trunc = mul nuw nsw i16 %32, 100
  %33 = udiv i16 %.lhs.trunc, 255
  %.zext = zext nneg i16 %33 to i32
  tail call void (ptr, ptr, ...) @proto_item_append_text(ptr noundef %30, ptr noundef nonnull @.str.9956, i32 noundef %.zext)
  %34 = load i32, ptr @hf_ieee80211_qbss_adc, align 4
  %35 = tail call ptr @proto_tree_add_item(ptr noundef %2, i32 noundef %34, ptr noundef %0, i32 noundef 3, i32 noundef 2, i32 noundef -2147483648)
  %36 = tail call zeroext i16 @tvb_get_letohs(ptr noundef %0, i32 noundef 3)
  %37 = zext i16 %36 to i32
  %38 = shl nuw nsw i32 %37, 5
  tail call void (ptr, ptr, ...) @proto_item_append_text(ptr noundef %35, ptr noundef nonnull @.str.9957, i32 noundef %38)
  br label %39

39:                                               ; preds = %15, %24, %7
  %40 = tail call i32 @tvb_captured_length(ptr noundef %0)
  ret i32 %40
}